target datalayout = "e-m:e-p270:32:32-p271:32:32-p272:64:64-i64:64-i128:128-f80:128-n8:16:32:64-S128"
target triple = "x86_64-pc-linux-gnu"

; Function Attrs: nounwind uwtable
define internal void @SDL_FillSurfaceRect2(ptr noundef %0, i32 noundef %1, i32 noundef %2, i32 noundef %3, i32 noundef %4) #0 {
  %6 = alloca ptr, align 8
  %7 = alloca i32, align 4
  %8 = alloca i32, align 4
  %9 = alloca i32, align 4
  %10 = alloca i32, align 4
  %11 = alloca i32, align 4
  %12 = alloca ptr, align 8
  store ptr %0, ptr %6, align 8
  store i32 %1, ptr %7, align 4
  store i32 %2, ptr %8, align 4
  store i32 %3, ptr %9, align 4
  store i32 %4, ptr %10, align 4
  call void @llvm.lifetime.start.p0(i64 4, ptr %11) #5
  call void @llvm.lifetime.start.p0(i64 8, ptr %12) #5
  store ptr null, ptr %12, align 8
  br label %13

13:                                               ; preds = %53, %5
  %14 = load i32, ptr %10, align 4
  %15 = add nsw i32 %14, -1
  store i32 %15, ptr %10, align 4
  %16 = icmp ne i32 %14, 0
  br i1 %16, label %17, label %58

17:                                               ; preds = %13
  %18 = load i32, ptr %9, align 4
  store i32 %18, ptr %11, align 4
  %19 = load ptr, ptr %6, align 8
  store ptr %19, ptr %12, align 8
  %20 = load i32, ptr %11, align 4
  %21 = icmp sgt i32 %20, 1
  br i1 %21, label %22, label %41

22:                                               ; preds = %17
  %23 = load ptr, ptr %12, align 8
  %24 = ptrtoint ptr %23 to i64
  %25 = and i64 %24, 2
  %26 = icmp ne i64 %25, 0
  br i1 %26, label %27, label %34

27:                                               ; preds = %22
  %28 = load i32, ptr %8, align 4
  %29 = trunc i32 %28 to i16
  %30 = load ptr, ptr %12, align 8
  %31 = getelementptr inbounds nuw i16, ptr %30, i32 1
  store ptr %31, ptr %12, align 8
  store i16 %29, ptr %30, align 2
  %32 = load i32, ptr %11, align 4
  %33 = add nsw i32 %32, -1
  store i32 %33, ptr %11, align 4
  br label %34

34:                                               ; preds = %27, %22
  %35 = load ptr, ptr %12, align 8
  %36 = load i32, ptr %8, align 4
  %37 = load i32, ptr %11, align 4
  %38 = ashr i32 %37, 1
  %39 = sext i32 %38 to i64
  %40 = call ptr @SDL_memset4_REAL(ptr noundef %35, i32 noundef %36, i64 noundef %39)
  br label %41

41:                                               ; preds = %34, %17
  %42 = load i32, ptr %11, align 4
  %43 = and i32 %42, 1
  %44 = icmp ne i32 %43, 0
  br i1 %44, label %45, label %53

45:                                               ; preds = %41
  %46 = load i32, ptr %8, align 4
  %47 = trunc i32 %46 to i16
  %48 = load ptr, ptr %12, align 8
  %49 = load i32, ptr %11, align 4
  %50 = sub nsw i32 %49, 1
  %51 = sext i32 %50 to i64
  %52 = getelementptr inbounds i16, ptr %48, i64 %51
  store i16 %47, ptr %52, align 2
  br label %53

53:                                               ; preds = %45, %41
  %54 = load i32, ptr %7, align 4
  %55 = load ptr, ptr %6, align 8
  %56 = sext i32 %54 to i64
  %57 = getelementptr inbounds i8, ptr %55, i64 %56
  store ptr %57, ptr %6, align 8
  br label %13, !llvm.loop !6

58:                                               ; preds = %13
  call void @llvm.lifetime.end.p0(i64 8, ptr %12) #5
  call void @llvm.lifetime.end.p0(i64 4, ptr %11) #5
  ret void
}