; Function Attrs: nounwind uwtable
define internal void @SDL_FillSurfaceRect2(ptr noundef %0, i32 noundef %1, i32 noundef %2, i32 noundef %3, i32 noundef %4) unnamed_addr #0 {
  %6 = add nsw i32 %4, -1
  %.not24 = icmp eq i32 %4, 0
  br i1 %.not24, label %._crit_edge, label %.lr.ph

.lr.ph:                                           ; preds = %5
  %7 = icmp sgt i32 %3, 1
  %8 = trunc i32 %2 to i16
  %9 = add nsw i32 %3, -1
  %10 = sext i32 %1 to i64
  br i1 %7, label %.lr.ph.split.us, label %.lr.ph.split

.lr.ph.split.us:                                  ; preds = %.lr.ph, %25
  %11 = phi i32 [ %27, %25 ], [ %6, %.lr.ph ]
  %.01925.us = phi ptr [ %26, %25 ], [ %0, %.lr.ph ]
  %12 = ptrtoint ptr %.01925.us to i64
  %13 = and i64 %12, 2
  %.not22.us = icmp eq i64 %13, 0
  br i1 %.not22.us, label %16, label %14

14:                                               ; preds = %.lr.ph.split.us
  %15 = getelementptr inbounds nuw i8, ptr %.01925.us, i64 2
  store i16 %8, ptr %.01925.us, align 2
  br label %16

16:                                               ; preds = %14, %.lr.ph.split.us
  %.117.us = phi i32 [ %9, %14 ], [ %3, %.lr.ph.split.us ]
  %.1.us = phi ptr [ %15, %14 ], [ %.01925.us, %.lr.ph.split.us ]
  %17 = lshr i32 %.117.us, 1
  %18 = zext nneg i32 %17 to i64
  %19 = tail call ptr @SDL_memset4_REAL(ptr noundef %.1.us, i32 noundef %2, i64 noundef %18) #5
  %20 = and i32 %.117.us, 1
  %.not23.us = icmp eq i32 %20, 0
  br i1 %.not23.us, label %25, label %21

21:                                               ; preds = %16
  %22 = sext i32 %.117.us to i64
  %23 = getelementptr i16, ptr %.1.us, i64 %22
  %24 = getelementptr i8, ptr %23, i64 -2
  store i16 %8, ptr %24, align 2
  br label %25

25:                                               ; preds = %21, %16
  %26 = getelementptr inbounds i8, ptr %.01925.us, i64 %10
  %27 = add nsw i32 %11, -1
  %.not.us = icmp eq i32 %11, 0
  br i1 %.not.us, label %._crit_edge, label %.lr.ph.split.us, !llvm.loop !7

.lr.ph.split:                                     ; preds = %.lr.ph
  %28 = and i32 %3, 1
  %.not23 = icmp eq i32 %28, 0
  %29 = sext i32 %3 to i64
  br i1 %.not23, label %._crit_edge, label %.lr.ph.split.split

.lr.ph.split.split:                               ; preds = %.lr.ph.split, %.lr.ph.split.split
  %30 = phi i32 [ %34, %.lr.ph.split.split ], [ %6, %.lr.ph.split ]
  %.01925 = phi ptr [ %33, %.lr.ph.split.split ], [ %0, %.lr.ph.split ]
  %31 = getelementptr i16, ptr %.01925, i64 %29
  %32 = getelementptr i8, ptr %31, i64 -2
  store i16 %8, ptr %32, align 2
  %33 = getelementptr inbounds i8, ptr %.01925, i64 %10
  %34 = add nsw i32 %30, -1
  %.not = icmp eq i32 %30, 0
  br i1 %.not, label %._crit_edge, label %.lr.ph.split.split, !llvm.loop !7

._crit_edge:                                      ; preds = %.lr.ph.split.split, %25, %.lr.ph.split, %5
  ret void
}